Certificate:
    Data:
        Version: 3 (0x2)
        Serial Number: 1 (0x1)
        Signature Algorithm: ecdsa-with-SHA256
        Issuer: C=NL, ST=Noord Holland, L=Amsterdam, O=NLnet Labs, CN=localhost
        Validity
            Not Before: Sep 28 19:59:26 2021 GMT
            Not After : Sep 28 19:59:26 2022 GMT
        Subject: C=NL, ST=Noord Holland, O=NLnet Labs, CN=localhost
        Subject Public Key Info:
            Public Key Algorithm: id-ecPublicKey
                Public-Key: (256 bit)
                pub:
                    04:74:94:a6:97:4b:18:33:71:bb:29:40:75:b0:8a:
                    66:ee:75:09:a8:fb:b0:83:71:a7:82:b5:4b:15:76:
                    d8:bd:2e:16:5c:b3:26:d8:bc:73:9b:fe:10:8b:95:
                    4f:41:06:4a:ee:ac:f6:d7:bc:96:a7:ff:ef:39:52:
                    0b:ea:25:c7:1d
                ASN1 OID: prime256v1
                NIST CURVE: P-256
        X509v3 extensions:
            X509v3 Subject Alternative Name: 
                DNS:localhost
    Signature Algorithm: ecdsa-with-SHA256
         30:45:02:21:00:d8:e6:2e:5b:40:77:dd:3f:1f:9f:5f:79:69:
         63:6c:93:db:c7:84:04:83:21:ed:68:b2:9d:eb:96:00:3e:d9:
         db:02:20:50:3d:9a:e1:e3:37:db:94:d5:8d:e6:9f:ba:1f:15:
         18:f3:04:84:96:8e:c4:79:f4:15:90:3e:e5:e5:f0:b6:f9
-----BEGIN CERTIFICATE-----
MIIBtzCCAV2gAwIBAgIBATAKBggqhkjOPQQDAjBiMQswCQYDVQQGEwJOTDEWMBQG
A1UECAwNTm9vcmQgSG9sbGFuZDESMBAGA1UEBwwJQW1zdGVyZGFtMRMwEQYDVQQK
DApOTG5ldCBMYWJzMRIwEAYDVQQDDAlsb2NhbGhvc3QwHhcNMjEwOTI4MTk1OTI2
WhcNMjIwOTI4MTk1OTI2WjBOMQswCQYDVQQGEwJOTDEWMBQGA1UECAwNTm9vcmQg
SG9sbGFuZDETMBEGA1UECgwKTkxuZXQgTGFiczESMBAGA1UEAwwJbG9jYWxob3N0
MFkwEwYHKoZIzj0CAQYIKoZIzj0DAQcDQgAEdJSml0sYM3G7KUB1sIpm7nUJqPuw
g3GngrVLFXbYvS4WXLMm2Lxzm/4Qi5VPQQZK7qz217yWp//vOVIL6iXHHaMYMBYw
FAYDVR0RBA0wC4IJbG9jYWxob3N0MAoGCCqGSM49BAMCA0gAMEUCIQDY5i5bQHfd
Px+fX3lpY2yT28eEBIMh7WiyneuWAD7Z2wIgUD2a4eM325TVjeafuh8VGPMEhJaO
xHn0FZA+5eXwtvk=
-----END CERTIFICATE-----
